target datalayout = "e-m:e-p270:32:32-p271:32:32-p272:64:64-i64:64-i128:128-f80:128-n8:16:32:64-S128"
target triple = "x86_64-pc-linux-gnu"

%struct.reassembly_table = type { ptr, ptr, ptr, ptr, ptr }
%struct.reassembly_table_functions = type { ptr, ptr, ptr, ptr, ptr, ptr }

@proto_register_stt.ett = internal global [7 x ptr] [ptr @ett_stt, ptr @ett_stt_tcp_data, ptr @ett_stt_tcp_flags, ptr @ett_stt_flgs, ptr @ett_stt_vlan, ptr @ett_segment, ptr @ett_segments], align 16
@.str.112 = private unnamed_addr constant [30 x i8] c"Stateless Transport Tunneling\00", align 1
@.str.113 = private unnamed_addr constant [4 x i8] c"STT\00", align 1
@.str.114 = private unnamed_addr constant [4 x i8] c"stt\00", align 1
@proto_stt = internal global i32 0, align 4
@.str.115 = private unnamed_addr constant [11 x i8] c"reassemble\00", align 1
@.str.116 = private unnamed_addr constant [33 x i8] c"Reassemble segmented STT packets\00", align 1
@.str.117 = private unnamed_addr constant [80 x i8] c"Reassembles greater than MTU sized STT packets broken into segments on transmit\00", align 1
@pref_reassemble = internal global i32 1, align 4
@.str.118 = private unnamed_addr constant [15 x i8] c"check_checksum\00", align 1
@.str.119 = private unnamed_addr constant [38 x i8] c"Validate the STT checksum if possible\00", align 1
@.str.120 = private unnamed_addr constant [45 x i8] c"Whether to validate the STT checksum or not.\00", align 1
@pref_check_checksum = internal global i32 0, align 4
@stt_reassembly_table = internal global %struct.reassembly_table zeroinitializer, align 8
@addresses_reassembly_table_functions = external constant %struct.reassembly_table_functions, align 8

; Function Attrs: nounwind uwtable
define hidden void @proto_register_stt() #0 {
  %1 = alloca ptr, align 8
  %2 = alloca ptr, align 8
  %3 = call i32 @proto_register_protocol(ptr noundef @.str.112, ptr noundef @.str.113, ptr noundef @.str.114)
  store i32 %3, ptr @proto_stt, align 4
  %4 = load i32, ptr @proto_stt, align 4
  %5 = call ptr @expert_register_protocol(i32 noundef %4)
  store ptr %5, ptr %1, align 8
  %6 = load ptr, ptr %1, align 8
  call void @expert_register_field_array(ptr noundef %6, ptr noundef @proto_register_stt.ei, i32 noundef 5)
  %7 = load i32, ptr @proto_stt, align 4
  call void @proto_register_field_array(i32 noundef %7, ptr noundef @proto_register_stt.hf, i32 noundef 48)
  call void @proto_register_subtree_array(ptr noundef @proto_register_stt.ett, i32 noundef 7)
  %8 = load i32, ptr @proto_stt, align 4
  %9 = call ptr @prefs_register_protocol(i32 noundef %8, ptr noundef null)
  store ptr %9, ptr %2, align 8
  %10 = load ptr, ptr %2, align 8
  call void @prefs_register_bool_preference(ptr noundef %10, ptr noundef @.str.115, ptr noundef @.str.116, ptr noundef @.str.117, ptr noundef @pref_reassemble)
  %11 = load ptr, ptr %2, align 8
  call void @prefs_register_bool_preference(ptr noundef %11, ptr noundef @.str.118, ptr noundef @.str.119, ptr noundef @.str.120, ptr noundef @pref_check_checksum)
  call void @reassembly_table_register(ptr noundef @stt_reassembly_table, ptr noundef @addresses_reassembly_table_functions)
  ret void
}