; Function Attrs: nounwind uwtable
define hidden void @proto_register_stt() local_unnamed_addr #0 {
  %1 = tail call i32 @proto_register_protocol(ptr noundef nonnull @.str.112, ptr noundef nonnull @.str.113, ptr noundef nonnull @.str.114) #4
  store i32 %1, ptr @proto_stt, align 4
  %2 = tail call ptr @expert_register_protocol(i32 noundef %1) #4
  tail call void @expert_register_field_array(ptr noundef %2, ptr noundef nonnull @proto_register_stt.ei, i32 noundef 5) #4
  %3 = load i32, ptr @proto_stt, align 4
  tail call void @proto_register_field_array(i32 noundef %3, ptr noundef nonnull @proto_register_stt.hf, i32 noundef 48) #4
  tail call void @proto_register_subtree_array(ptr noundef nonnull @proto_register_stt.ett, i32 noundef 7) #4
  %4 = load i32, ptr @proto_stt, align 4
  %5 = tail call ptr @prefs_register_protocol(i32 noundef %4, ptr noundef null) #4
  tail call void @prefs_register_bool_preference(ptr noundef %5, ptr noundef nonnull @.str.115, ptr noundef nonnull @.str.116, ptr noundef nonnull @.str.117, ptr noundef nonnull @pref_reassemble) #4
  tail call void @prefs_register_bool_preference(ptr noundef %5, ptr noundef nonnull @.str.118, ptr noundef nonnull @.str.119, ptr noundef nonnull @.str.120, ptr noundef nonnull @pref_check_checksum) #4
  tail call void @reassembly_table_register(ptr noundef nonnull @stt_reassembly_table, ptr noundef nonnull @addresses_reassembly_table_functions) #4
  ret void
}